ccopy_reg
_reconstructor
p1
(clenstools.pipeline.settings
NGenICSettings
p2
c__builtin__
object
p3
NtRp4
(dp5
S'UnitLength_in_cm'
p6
F3.0856779999999998e+21
sS'ShapeGamma'
p7
F0.20999999999999999
sS'_delz'
p8
F9.9999999999999995e-07
sS'WhichSpectrum'
p9
I2
sS'UnitVelocity_in_cm_per_s'
p10
F100000
sS'Redshift'
p11
F100
sS'SphereMode'
p12
I1
sS'_zmaxact'
p13
F110
sS'_iwmode'
p14
I3
sS'UnitMass_in_g'
p15
F1.9890000000000001e+43
sS'PrimordialIndex'
p16
F1
sS'ReNormalizeInputSpectrum'
p17
I1
sS'InputSpectrum_UnitLength_in_cm'
p18
F3.085678e+24
sS'_zminact'
p19
F0
sS'GlassFile'
p20
S'/home1/02918/apetri/.local/lib/python2.7/site-packages/lenstools/data/dummy_glass_little_endian.dat'
p21
sS'NumFilesWrittenInParallel'
p22
I4
sb.