ccopy_reg
_reconstructor
p1
(clenstools.pipeline.settings
PlaneSettings
p2
c__builtin__
object
p3
NtRp4
(dp5
S'format'
p6
S'fits'
p7
sS'last_snapshot'
p8
I59
sS'plane_resolution'
p9
I4096
sS'thickness'
p10
cnumpy.core.multiarray
_reconstruct
p11
(castropy.units.quantity
Quantity
p12
(I0
tS'b'
tRp13
((I1
(tcnumpy
dtype
p14
(S'f8'
I0
I1
tRp15
(I3
S'<'
NNNI-1
I-1
I0
tbI00
S'\x00\x00\x00\x00\x00\x00i@'
t(dp16
S'_unit'
p17
g1
(castropy.units.core
PrefixUnit
p18
g3
NtRp19
(dp20
S'_format'
p21
(dp22
sS'_short_names'
p23
(lp24
VMpc
p25
asS'_names'
p26
(lp27
g25
aVmegaparsec
p28
asS'_represents'
p29
g1
(castropy.units.core
CompositeUnit
p30
g3
NtRp31
(dp32
S'_decomposed_cache'
p33
g1
(g30
g3
NtRp34
(dp35
g33
NsS'_powers'
p36
(lp37
I1
asS'_scale'
p38
F3.0856775814671917e+22
sS'_hash'
p39
NsS'_bases'
p40
(lp41
castropy.units.core
_recreate_irreducible_unit
p42
(castropy.units.core
IrreducibleUnit
p43
(lp44
Vm
aVmeter
p45
aI01
tRp46
(dp47
g21
(dp48
sg23
(lp49
Vm
asg26
(lp50
Vm
ag45
asS'__doc__'
p51
Vmeter: base unit of length in SI
p52
sS'_long_names'
p53
(lp54
g45
asbasbsg36
(lp55
I1
asg38
F1000000
sg39
I5922263298416514872
sg40
(lp56
g1
(castropy.units.core
Unit
p57
g3
NtRp58
(dp59
g21
(dp60
sg23
(lp61
Vpc
p62
asg26
(lp63
g62
aVparsec
p64
asg29
g1
(g30
g3
NtRp65
(dp66
g33
g65
sg36
(lp67
I1
asg38
F30856775814671916
sg39
I-1459738009292166718
sg40
(lp68
g46
asbsg51
Vparsec: approximately 3.26 light-years.
p69
sg53
(lp70
g64
asbasbsg51
Vmegaparsec (Mpc)
p71
sg53
(lp72
g28
asbstbsS'cut_points'
p73
g11
(g12
(I0
tS'b'
tRp74
((I1
(I2
tg15
I00
S'\xaa\xaa\xaa\xaa\xaa\nZ@\x00\x00\x00\x00\x00\x88s@'
t(dp75
g17
g19
stbsS'normals'
p76
(lp77
I0
aI1
aI2
asS'override_with_local'
p78
I00
sS'directory_name'
p79
S'Planes'
p80
sS'length_unit'
p81
g1
(g18
g3
NtRp82
(dp83
g21
(dp84
sg23
(lp85
VMpc
p86
asg26
(lp87
g86
aVmegaparsec
p88
asg29
g1
(g30
g3
NtRp89
(dp90
g33
g1
(g30
g3
NtRp91
(dp92
g33
Nsg36
(lp93
I1
asg38
F3.0856775814671917e+22
sg39
Nsg40
(lp94
g46
asbsg36
(lp95
I1
asg38
F1000000
sg39
I5922263298416514872
sg40
(lp96
g1
(g57
g3
NtRp97
(dp98
g21
(dp99
sg23
(lp100
Vpc
p101
asg26
(lp102
g101
aVparsec
p103
asg29
g1
(g30
g3
NtRp104
(dp105
g33
g104
sg36
(lp106
I1
asg38
F30856775814671916
sg39
I-1459738009292166718
sg40
(lp107
g46
asbsg51
Vparsec: approximately 3.26 light-years.
p108
sg53
(lp109
g103
asbasbsg51
Vmegaparsec (Mpc)
p110
sg53
(lp111
g88
asbsS'first_snapshot'
p112
I0
sb.