ccopy_reg
_reconstructor
p1
(clenstools.simulations.gadget2
Gadget2Settings
p2
c__builtin__
object
p3
NtRp4
(dp5
S'SofteningGas'
p6
I0
sS'UnitLength_in_cm'
p7
F3.0856779999999998e+21
sS'DesNumNgb'
p8
I33
sS'SofteningHaloMaxPhys'
p9
F9
sS'TimeMax'
p10
F1
sS'CpuTimeBetRestartFile'
p11
cnumpy.core.multiarray
_reconstruct
p12
(castropy.units.quantity
Quantity
p13
(I0
tS'b'
tRp14
((I1
(tcnumpy
dtype
p15
(S'f8'
I0
I1
tRp16
(I3
S'<'
NNNI-1
I-1
I0
tbI00
S'\x00\x00\x00\x00\x00\x00)@'
t(dp17
S'_unit'
p18
g1
(castropy.units.core
Unit
p19
g3
NtRp20
(dp21
S'_format'
p22
(dp23
sS'_short_names'
p24
(lp25
Vh
asS'_names'
p26
(lp27
Vh
aVhour
p28
aVhr
p29
asS'_represents'
p30
g1
(castropy.units.core
CompositeUnit
p31
g3
NtRp32
(dp33
S'_decomposed_cache'
p34
g32
sS'_powers'
p35
(lp36
I1
asS'_scale'
p37
F3600
sS'_hash'
p38
I-8354024383268252204
sS'_bases'
p39
(lp40
castropy.units.core
_recreate_irreducible_unit
p41
(castropy.units.core
IrreducibleUnit
p42
(lp43
Vs
aVsecond
p44
aI01
tRp45
(dp46
g22
(dp47
sg24
(lp48
Vs
asg26
(lp49
Vs
ag44
asS'__doc__'
p50
Vsecond: base unit of time in SI.
p51
sS'_long_names'
p52
(lp53
g44
asbasbsg50
Vhour (h)
p54
sg52
(lp55
g28
ag29
asbstbsS'OutputListFilename'
p56
S'outputs.txt'
p57
sS'EnergyFile'
p58
S'energy.txt'
p59
sS'SofteningHalo'
p60
F9
sS'TreeDomainUpdateFrequency'
p61
F0.025000000000000001
sS'MaxRMSDisplacementFac'
p62
F0.20000000000000001
sS'PartAllocFactor'
p63
F1.3
sS'MinSizeTimestep'
p64
F0
sS'SofteningStarsMaxPhys'
p65
I0
sS'MaxSizeTimestep'
p66
F0.02
sS'SofteningStars'
p67
I0
sS'TimeOfFirstSnapshot'
p68
I0
sS'TimeLimitCPU'
p69
g12
(g13
(I0
tS'b'
tRp70
((I1
(tg16
I00
S'\x00\x00\x00\x00\x00\x00\xf0?'
t(dp71
g18
g1
(g19
g3
NtRp72
(dp73
g22
(dp74
sg24
(lp75
Vd
asg26
(lp76
Vd
aVday
p77
asg30
g1
(g31
g3
NtRp78
(dp79
g34
g1
(g31
g3
NtRp80
(dp81
g34
Nsg35
(lp82
I1
asg37
F86400
sg38
Nsg39
(lp83
g45
asbsg35
(lp84
I1
asg37
F24
sg38
I8474269870391371934
sg39
(lp85
g20
asbsg50
Vday (d)
p86
sg52
(lp87
g77
asbstbsS'BufferSize'
p88
g12
(g13
(I0
tS'b'
tRp89
((I1
(tg16
I00
S'\x00\x00\x00\x00\x00\x004@'
t(dp90
g18
g1
(castropy.units.core
PrefixUnit
p91
g3
NtRp92
(dp93
g22
(dp94
Vvounit
p95
VMbyte
p96
ssg24
(lp97
VMbyte
p98
asg26
(lp99
g98
aVMB
p100
aVmegabyte
p101
asg30
g1
(g31
g3
NtRp102
(dp103
g34
g1
(g31
g3
NtRp104
(dp105
g34
Nsg35
(lp106
I1
asg37
F8000000
sg38
Nsg39
(lp107
g41
(g42
(lp108
Vbit
p109
aVb
ag109
aI01
tRp110
(dp111
g22
(dp112
sg24
(lp113
g109
aVb
asg26
(lp114
g109
aVb
ag109
asg50
Vb (bit)
p115
sg52
(lp116
g109
asbasbsg35
(lp117
I1
asg37
F1000000
sg38
I-1976935134842369269
sg39
(lp118
g1
(g19
g3
NtRp119
(dp120
g22
(dp121
g95
Vbyte
p122
ssg24
(lp123
g122
aVB
asg26
(lp124
g122
aVB
ag122
asg30
g1
(g31
g3
NtRp125
(dp126
g34
g125
sg35
(lp127
I1
asg37
F8
sg38
I9058943602943842114
sg39
(lp128
g110
asbsg50
VB (byte)
p129
sg52
(lp130
g122
asbasbsg50
VMB (Mbyte)
p131
sg52
(lp132
g100
ag101
asbstbsS'ArtBulkViscConst'
p133
F0.80000000000000004
sS'ICFormat'
p134
I1
sS'CpuFile'
p135
S'cpu.txt'
p136
sS'TypeOfTimestepCriterion'
p137
I0
sS'TypeOfOpeningCriterion'
p138
I1
sS'InitGasTemp'
p139
F1000
sS'NumFilesWrittenInParallel'
p140
I8
sS'SofteningBulge'
p141
I0
sS'GravityConstantInternal'
p142
I0
sS'TimeBetStatistics'
p143
F0.050000000000000003
sS'NumFilesPerSnapshot'
p144
I32
sS'ComovingIntegrationOn'
p145
I1
sS'ErrTolTheta'
p146
F0.45000000000000001
sS'UnitVelocity_in_cm_per_s'
p147
F100000
sS'SofteningGasMaxPhys'
p148
I0
sS'SofteningDisk'
p149
I0
sS'CourantFac'
p150
F0.14999999999999999
sS'UnitMass_in_g'
p151
F1.9890000000000001e+43
sS'MinGasHsmlFractional'
p152
F0.25
sS'MaxNumNgbDeviation'
p153
I2
sS'TimeBetSnapshot'
p154
F0.5
sS'RestartFile'
p155
S'restart'
p156
sS'OutputDir'
p157
S'snapshots'
p158
sS'PeriodicBoundariesOn'
p159
I1
sS'ResubmitCommand'
p160
S'my-scriptfile'
p161
sS'SofteningBndryMaxPhys'
p162
I0
sS'InfoFile'
p163
S'info.txt'
p164
sS'SnapshotFileBase'
p165
S'snapshot'
p166
sS'SnapFormat'
p167
I1
sS'SofteningBndry'
p168
I0
sS'OutputScaleFactor'
p169
g12
(cnumpy
ndarray
p170
(I0
tS'b'
tRp171
(I1
(I60
tg16
I00
S'"\xdb\xd6\xaa\x7f[\x99?\xe5<\x07\xb4|{\x9d?\xea\xa5\x88\x9c\x0f\xf5\xa0?1\xcfD\x03\xb5S\xa3?\xedV\xed\x8c\xb0\xd9\xa5?a\xd3&\xf5\x04\x87\xa8?-\x05]\xe3\xb5[\xab?c\x90^@\xc8W\xae?5\x89o1\xa1\xbd\xb0?H;}=\x16c\xb2?\x8c\x97\x03zH\x1c\xb4?\xcb\x81/n>\xe9\xb5?\x95\x84\x94D\x00\xca\xb7?k\xc1F\x0e\x98\xbe\xb9?9\xe2\xad\x1b\x12\xc7\xbb?\xce0=H}\xe3\xbd?\x19\xdcS\xd5\xf5\t\xc0?\xee\x07eb9,\xc1?G\x120 \x96X\xc2?\xac\xe6[B\x1b\x8f\xc3? \xa7\xb4\xa3\xda\xcf\xc4?_\xb5W3\xe9\x1a\xc6?\xd13,h_p\xc7?\xe7B\x81\x9bY\xd0\xc8?\xb9\x17\\\xa3\xf8:\xca?\xcf\x96UXb\xb0\xcb?C\x10\xdf@\xc20\xcd?3\xdc\x16(J\xbc\xce?\xcf\xf7\xdew\x99)\xd0?5\x11d\xba\xde\xfa\xd0?\x06\x87\xc7\xaa\x19\xd2\xd1?M\xb1\xce\x12t\xaf\xd2?\xc8\x1ek6\x1d\x93\xd3?Fw\x18vJ}\xd4?\xe6^6\x118n\xd5?\x84\x062\xe0)f\xd6?\xa4\xee20le\xd7?\xea\xf8V\xd0Tl\xd8?\xe9\xb3\xf1\rD{\xd9?\xeb\xfcl\x05\xa6\x92\xda?.\x15A\x0e\xf4\xb2\xdb?\x1a\x9b\xb7:\xb6\xdc\xdc?\x04\x1e\x8f,\x85\x10\xde?u\xdap*\x0cO\xdf?\x87=~\xc2\x85L\xe0?\x89e\x7f\x9a\xad\xf7\xe0?\xfa[\x84\x0cw\xa9\xe1?\xab\x0b&\xc4jb\xe2?\xb0$\x90\xd9"#\xe3?Aa\x0bGM\xec\xe3?$\xbd\x9a\xda\xae\xbe\xe4?g1\x82\xb5&\x9b\xe5?\xfe\xc2\xb1x\xb2\x82\xe6?\xe1\xcf!*sv\xe7?\xbc\xba4H\xb3w\xe8?\x87e\xd0\xfa\xed\x87\xe9?\xcf\xbey\xe9\xd7\xa8\xea?< o\x18j\xdc\xeb?&u\x15Z\xef$\xed?\x1a\xec\x13\x01\x15\x85\xee?'
tbsS'TimingsFile'
p172
S'timings.txt'
p173
sS'ErrTolIntAccuracy'
p174
F0.025000000000000001
sS'OutputListOn'
p175
I1
sS'ErrTolForceAcc'
p176
F0.0050000000000000001
sS'TreeAllocFactor'
p177
F0.69999999999999996
sS'SofteningDiskMaxPhys'
p178
I0
sS'SofteningBulgeMaxPhys'
p179
I0
sS'InitCondFile'
p180
S'gadget_ic'
p181
sS'MinGasTemp'
p182
F50
sS'ResubmitOn'
p183
I0
sb.