ccopy_reg
_reconstructor
p1
(clenstools.pipeline.settings
NGenICSettings
p2
c__builtin__
object
p3
NtRp4
(dp5
S'ShapeGamma'
p6
F0.20999999999999999
sS'Redshift'
p7
F100
sS'UnitVelocity_in_cm_per_s'
p8
F100000
sS'UnitLength_in_cm'
p9
F3.0856779999999998e+21
sS'SphereMode'
p10
I1
sS'_delz'
p11
F9.9999999999999995e-07
sS'_iwmode'
p12
I3
sS'_zminact'
p13
F0
sS'UnitMass_in_g'
p14
F1.9890000000000001e+43
sS'PrimordialIndex'
p15
F1
sS'ReNormalizeInputSpectrum'
p16
I1
sS'WhichSpectrum'
p17
I2
sS'InputSpectrum_UnitLength_in_cm'
p18
F3.085678e+24
sS'_zmaxact'
p19
F110
sS'GlassFile'
p20
S'/home1/02918/apetri/.local/lib/python2.7/site-packages/lenstools-0.5-py2.7-linux-x86_64.egg/lenstools/data/dummy_glass_little_endian.dat'
p21
sS'NumFilesWrittenInParallel'
p22
I4
sb.